target datalayout = "e-m:e-p270:32:32-p271:32:32-p272:64:64-i64:64-i128:128-f80:128-n8:16:32:64-S128"
target triple = "x86_64-pc-linux-gnu"

%struct.SurfaceDataRasInfo = type { %struct.SurfaceDataBounds, ptr, i32, i32, i32, i32, ptr, ptr, ptr, ptr, ptr, ptr, i32, %union.anon.0 }
%struct.SurfaceDataBounds = type { i32, i32, i32, i32 }
%union.anon.0 = type { ptr, [56 x i8] }

; Function Attrs: nounwind uwtable
define hidden void @ByteIndexedBmToUshort565RgbXparBgCopy(ptr noundef %0, ptr noundef %1, i32 noundef %2, i32 noundef %3, i32 noundef %4, ptr noundef %5, ptr noundef %6, ptr noundef %7, ptr noundef %8) #1 {
  %10 = alloca ptr, align 8
  %11 = alloca ptr, align 8
  %12 = alloca i32, align 4
  %13 = alloca i32, align 4
  %14 = alloca i32, align 4
  %15 = alloca ptr, align 8
  %16 = alloca ptr, align 8
  %17 = alloca ptr, align 8
  %18 = alloca ptr, align 8
  %19 = alloca [256 x i32], align 16
  %20 = alloca ptr, align 8
  %21 = alloca i32, align 4
  %22 = alloca ptr, align 8
  %23 = alloca i32, align 4
  %24 = alloca i32, align 4
  %25 = alloca ptr, align 8
  %26 = alloca ptr, align 8
  %27 = alloca i32, align 4
  %28 = alloca i32, align 4
  %29 = alloca i32, align 4
  %30 = alloca i32, align 4
  store ptr %0, ptr %10, align 8
  store ptr %1, ptr %11, align 8
  store i32 %2, ptr %12, align 4
  store i32 %3, ptr %13, align 4
  store i32 %4, ptr %14, align 4
  store ptr %5, ptr %15, align 8
  store ptr %6, ptr %16, align 8
  store ptr %7, ptr %17, align 8
  store ptr %8, ptr %18, align 8
  br label %31

31:                                               ; preds = %9
  %32 = load ptr, ptr %15, align 8
  %33 = getelementptr inbounds %struct.SurfaceDataRasInfo, ptr %32, i32 0, i32 6
  %34 = load ptr, ptr %33, align 8
  store ptr %34, ptr %20, align 8
  %35 = load ptr, ptr %15, align 8
  %36 = getelementptr inbounds %struct.SurfaceDataRasInfo, ptr %35, i32 0, i32 5
  %37 = load i32, ptr %36, align 4
  store i32 %37, ptr %21, align 4
  %38 = load i32, ptr %21, align 4
  %39 = icmp uge i32 %38, 256
  br i1 %39, label %40, label %41

40:                                               ; preds = %31
  store i32 256, ptr %21, align 4
  br label %55

41:                                               ; preds = %31
  %42 = load i32, ptr %21, align 4
  %43 = zext i32 %42 to i64
  %44 = getelementptr inbounds [256 x i32], ptr %19, i64 0, i64 %43
  store ptr %44, ptr %22, align 8
  br label %45

45:                                               ; preds = %49, %41
  %46 = load i32, ptr %14, align 4
  %47 = load ptr, ptr %22, align 8
  %48 = getelementptr inbounds i32, ptr %47, i64 0
  store i32 %46, ptr %48, align 4
  br label %49

49:                                               ; preds = %45
  %50 = load ptr, ptr %22, align 8
  %51 = getelementptr inbounds i32, ptr %50, i32 1
  store ptr %51, ptr %22, align 8
  %52 = getelementptr inbounds [256 x i32], ptr %19, i64 0, i64 256
  %53 = icmp ult ptr %51, %52
  br i1 %53, label %45, label %54, !llvm.loop !41

54:                                               ; preds = %49
  br label %55

55:                                               ; preds = %54, %40
  br label %56

56:                                               ; preds = %55
  store i32 0, ptr %23, align 4
  br label %57

57:                                               ; preds = %90, %56
  br label %58

58:                                               ; preds = %57
  %59 = load ptr, ptr %20, align 8
  %60 = load i32, ptr %23, align 4
  %61 = zext i32 %60 to i64
  %62 = getelementptr inbounds i32, ptr %59, i64 %61
  %63 = load i32, ptr %62, align 4
  store i32 %63, ptr %24, align 4
  %64 = load i32, ptr %24, align 4
  %65 = icmp slt i32 %64, 0
  br i1 %65, label %66, label %83

66:                                               ; preds = %58
  %67 = load i32, ptr %24, align 4
  %68 = ashr i32 %67, 8
  %69 = and i32 %68, 63488
  %70 = load i32, ptr %24, align 4
  %71 = ashr i32 %70, 5
  %72 = and i32 %71, 2016
  %73 = or i32 %69, %72
  %74 = load i32, ptr %24, align 4
  %75 = ashr i32 %74, 3
  %76 = and i32 %75, 31
  %77 = or i32 %73, %76
  %78 = trunc i32 %77 to i16
  %79 = zext i16 %78 to i32
  %80 = load i32, ptr %23, align 4
  %81 = zext i32 %80 to i64
  %82 = getelementptr inbounds [256 x i32], ptr %19, i64 0, i64 %81
  store i32 %79, ptr %82, align 4
  br label %88

83:                                               ; preds = %58
  %84 = load i32, ptr %14, align 4
  %85 = load i32, ptr %23, align 4
  %86 = zext i32 %85 to i64
  %87 = getelementptr inbounds [256 x i32], ptr %19, i64 0, i64 %86
  store i32 %84, ptr %87, align 4
  br label %88

88:                                               ; preds = %83, %66
  br label %89

89:                                               ; preds = %88
  br label %90

90:                                               ; preds = %89
  %91 = load i32, ptr %23, align 4
  %92 = add i32 %91, 1
  store i32 %92, ptr %23, align 4
  %93 = load i32, ptr %21, align 4
  %94 = icmp ult i32 %92, %93
  br i1 %94, label %57, label %95, !llvm.loop !42

95:                                               ; preds = %90
  br label %96

96:                                               ; preds = %95
  br label %97

97:                                               ; preds = %96
  br label %98

98:                                               ; preds = %97
  %99 = load ptr, ptr %10, align 8
  store ptr %99, ptr %25, align 8
  %100 = load ptr, ptr %11, align 8
  store ptr %100, ptr %26, align 8
  %101 = load ptr, ptr %15, align 8
  %102 = getelementptr inbounds %struct.SurfaceDataRasInfo, ptr %101, i32 0, i32 4
  %103 = load i32, ptr %102, align 8
  store i32 %103, ptr %27, align 4
  %104 = load ptr, ptr %16, align 8
  %105 = getelementptr inbounds %struct.SurfaceDataRasInfo, ptr %104, i32 0, i32 4
  %106 = load i32, ptr %105, align 8
  store i32 %106, ptr %28, align 4
  %107 = load i32, ptr %12, align 4
  %108 = mul i32 %107, 1
  %109 = load i32, ptr %27, align 4
  %110 = sub i32 %109, %108
  store i32 %110, ptr %27, align 4
  %111 = load i32, ptr %12, align 4
  %112 = mul i32 %111, 2
  %113 = load i32, ptr %28, align 4
  %114 = sub i32 %113, %112
  store i32 %114, ptr %28, align 4
  br label %115

115:                                              ; preds = %155, %98
  %116 = load i32, ptr %12, align 4
  store i32 %116, ptr %29, align 4
  br label %117

117:                                              ; preds = %138, %115
  br label %118

118:                                              ; preds = %117
  %119 = load ptr, ptr %25, align 8
  %120 = getelementptr inbounds i8, ptr %119, i64 0
  %121 = load i8, ptr %120, align 1
  %122 = zext i8 %121 to i64
  %123 = getelementptr inbounds [256 x i32], ptr %19, i64 0, i64 %122
  %124 = load i32, ptr %123, align 4
  store i32 %124, ptr %30, align 4
  %125 = load i32, ptr %30, align 4
  %126 = trunc i32 %125 to i16
  %127 = load ptr, ptr %26, align 8
  %128 = getelementptr inbounds i16, ptr %127, i64 0
  store i16 %126, ptr %128, align 2
  br label %129

129:                                              ; preds = %118
  %130 = load ptr, ptr %25, align 8
  %131 = ptrtoint ptr %130 to i64
  %132 = add nsw i64 %131, 1
  %133 = inttoptr i64 %132 to ptr
  store ptr %133, ptr %25, align 8
  %134 = load ptr, ptr %26, align 8
  %135 = ptrtoint ptr %134 to i64
  %136 = add nsw i64 %135, 2
  %137 = inttoptr i64 %136 to ptr
  store ptr %137, ptr %26, align 8
  br label %138

138:                                              ; preds = %129
  %139 = load i32, ptr %29, align 4
  %140 = add i32 %139, -1
  store i32 %140, ptr %29, align 4
  %141 = icmp ugt i32 %140, 0
  br i1 %141, label %117, label %142, !llvm.loop !43

142:                                              ; preds = %138
  %143 = load ptr, ptr %25, align 8
  %144 = ptrtoint ptr %143 to i64
  %145 = load i32, ptr %27, align 4
  %146 = sext i32 %145 to i64
  %147 = add nsw i64 %144, %146
  %148 = inttoptr i64 %147 to ptr
  store ptr %148, ptr %25, align 8
  %149 = load ptr, ptr %26, align 8
  %150 = ptrtoint ptr %149 to i64
  %151 = load i32, ptr %28, align 4
  %152 = sext i32 %151 to i64
  %153 = add nsw i64 %150, %152
  %154 = inttoptr i64 %153 to ptr
  store ptr %154, ptr %26, align 8
  br label %155

155:                                              ; preds = %142
  %156 = load i32, ptr %13, align 4
  %157 = add i32 %156, -1
  store i32 %157, ptr %13, align 4
  %158 = icmp ugt i32 %157, 0
  br i1 %158, label %115, label %159, !llvm.loop !44

159:                                              ; preds = %155
  br label %160

160:                                              ; preds = %159
  ret void
}